; ModuleID = '46/1774.c'
source_filename = "46/1774.c"
target datalayout = "e-m:e-p270:32:32-p271:32:32-p272:64:64-i64:64-f80:128-n8:16:32:64-S128"
target triple = "x86_64-pc-linux-gnu"

@.str = private unnamed_addr constant [7 x i8] c"%d %d\0A\00", align 1
@.str.1 = private unnamed_addr constant [3 x i8] c"%d\00", align 1
@.str.2 = private unnamed_addr constant [4 x i8] c"%d\0A\00", align 1

; Function Attrs: noinline nounwind uwtable
define dso_local i32 @main() #0 {
  %1 = alloca i32, align 4
  %2 = alloca [100 x [100 x i32]], align 16
  %3 = alloca i32, align 4
  %4 = alloca i32, align 4
  %5 = alloca i32, align 4
  %6 = alloca i32, align 4
  %7 = alloca i32, align 4
  %8 = alloca i32, align 4
  %9 = alloca i32, align 4
  %10 = alloca i32, align 4
  store i32 0, i32* %1, align 4
  %11 = call i32 (i8*, ...) @__isoc99_scanf(i8* getelementptr inbounds ([7 x i8], [7 x i8]* @.str, i64 0, i64 0), i32* %8, i32* %9)
  %12 = load i32, i32* %8, align 4
  %13 = load i32, i32* %9, align 4
  %14 = icmp slt i32 %12, %13
  br i1 %14, label %15, label %17

15:                                               ; preds = %0
  %16 = load i32, i32* %8, align 4
  store i32 %16, i32* %10, align 4
  br label %19

17:                                               ; preds = %0
  %18 = load i32, i32* %9, align 4
  store i32 %18, i32* %10, align 4
  br label %19

19:                                               ; preds = %17, %15
  %20 = load i32, i32* %8, align 4
  %21 = sub nsw i32 %20, 1
  store i32 %21, i32* %3, align 4
  %22 = load i32, i32* %9, align 4
  %23 = sub nsw i32 %22, 1
  store i32 %23, i32* %4, align 4
  store i32 0, i32* %5, align 4
  br label %24

24:                                               ; preds = %45, %19
  %25 = load i32, i32* %5, align 4
  %26 = load i32, i32* %8, align 4
  %27 = icmp slt i32 %25, %26
  br i1 %27, label %28, label %48

28:                                               ; preds = %24
  store i32 0, i32* %6, align 4
  br label %29

29:                                               ; preds = %41, %28
  %30 = load i32, i32* %6, align 4
  %31 = load i32, i32* %9, align 4
  %32 = icmp slt i32 %30, %31
  br i1 %32, label %33, label %44

33:                                               ; preds = %29
  %34 = load i32, i32* %5, align 4
  %35 = sext i32 %34 to i64
  %36 = getelementptr inbounds [100 x [100 x i32]], [100 x [100 x i32]]* %2, i64 0, i64 %35
  %37 = load i32, i32* %6, align 4
  %38 = sext i32 %37 to i64
  %39 = getelementptr inbounds [100 x i32], [100 x i32]* %36, i64 0, i64 %38
  %40 = call i32 (i8*, ...) @__isoc99_scanf(i8* getelementptr inbounds ([3 x i8], [3 x i8]* @.str.1, i64 0, i64 0), i32* %39)
  br label %41

41:                                               ; preds = %33
  %42 = load i32, i32* %6, align 4
  %43 = add nsw i32 %42, 1
  store i32 %43, i32* %6, align 4
  br label %29

44:                                               ; preds = %29
  br label %45

45:                                               ; preds = %44
  %46 = load i32, i32* %5, align 4
  %47 = add nsw i32 %46, 1
  store i32 %47, i32* %5, align 4
  br label %24

48:                                               ; preds = %24
  store i32 0, i32* %7, align 4
  br label %49

49:                                               ; preds = %151, %48
  %50 = load i32, i32* %7, align 4
  %51 = sitofp i32 %50 to double
  %52 = load i32, i32* %10, align 4
  %53 = sitofp i32 %52 to double
  %54 = fmul double %53, 5.000000e-01
  %55 = fadd double %54, 5.000000e-01
  %56 = call double @llvm.floor.f64(double %55)
  %57 = fcmp olt double %51, %56
  br i1 %57, label %58, label %152

58:                                               ; preds = %49
  %59 = load i32, i32* %7, align 4
  store i32 %59, i32* %5, align 4
  %60 = load i32, i32* %7, align 4
  store i32 %60, i32* %6, align 4
  br label %61

61:                                               ; preds = %96, %58
  %62 = load i32, i32* %5, align 4
  %63 = load i32, i32* %3, align 4
  %64 = load i32, i32* %7, align 4
  %65 = sub nsw i32 %63, %64
  %66 = add nsw i32 %65, 1
  %67 = icmp slt i32 %62, %66
  br i1 %67, label %68, label %97

68:                                               ; preds = %61
  %69 = load i32, i32* %6, align 4
  %70 = load i32, i32* %4, align 4
  %71 = load i32, i32* %7, align 4
  %72 = sub nsw i32 %70, %71
  %73 = icmp slt i32 %69, %72
  br i1 %73, label %74, label %85

74:                                               ; preds = %68
  %75 = load i32, i32* %5, align 4
  %76 = sext i32 %75 to i64
  %77 = getelementptr inbounds [100 x [100 x i32]], [100 x [100 x i32]]* %2, i64 0, i64 %76
  %78 = load i32, i32* %6, align 4
  %79 = sext i32 %78 to i64
  %80 = getelementptr inbounds [100 x i32], [100 x i32]* %77, i64 0, i64 %79
  %81 = load i32, i32* %80, align 4
  %82 = call i32 (i8*, ...) @printf(i8* getelementptr inbounds ([4 x i8], [4 x i8]* @.str.2, i64 0, i64 0), i32 %81)
  %83 = load i32, i32* %6, align 4
  %84 = add nsw i32 %83, 1
  store i32 %84, i32* %6, align 4
  br label %96

85:                                               ; preds = %68
  %86 = load i32, i32* %5, align 4
  %87 = sext i32 %86 to i64
  %88 = getelementptr inbounds [100 x [100 x i32]], [100 x [100 x i32]]* %2, i64 0, i64 %87
  %89 = load i32, i32* %6, align 4
  %90 = sext i32 %89 to i64
  %91 = getelementptr inbounds [100 x i32], [100 x i32]* %88, i64 0, i64 %90
  %92 = load i32, i32* %91, align 4
  %93 = call i32 (i8*, ...) @printf(i8* getelementptr inbounds ([4 x i8], [4 x i8]* @.str.2, i64 0, i64 0), i32 %92)
  %94 = load i32, i32* %5, align 4
  %95 = add nsw i32 %94, 1
  store i32 %95, i32* %5, align 4
  br label %96

96:                                               ; preds = %85, %74
  br label %61

97:                                               ; preds = %61
  %98 = load i32, i32* %7, align 4
  %99 = add nsw i32 %98, 1
  store i32 %99, i32* %7, align 4
  %100 = load i32, i32* %6, align 4
  %101 = load i32, i32* %4, align 4
  %102 = sdiv i32 %101, 2
  %103 = icmp sgt i32 %100, %102
  br i1 %103, label %104, label %151

104:                                              ; preds = %97
  %105 = load i32, i32* %5, align 4
  %106 = load i32, i32* %3, align 4
  %107 = sdiv i32 %106, 2
  %108 = icmp sgt i32 %105, %107
  br i1 %108, label %109, label %151

109:                                              ; preds = %104
  %110 = load i32, i32* %3, align 4
  %111 = load i32, i32* %7, align 4
  %112 = sub nsw i32 %110, %111
  %113 = add nsw i32 %112, 1
  store i32 %113, i32* %5, align 4
  %114 = load i32, i32* %4, align 4
  %115 = load i32, i32* %7, align 4
  %116 = sub nsw i32 %114, %115
  store i32 %116, i32* %6, align 4
  br label %117

117:                                              ; preds = %149, %109
  %118 = load i32, i32* %5, align 4
  %119 = load i32, i32* %7, align 4
  %120 = sub nsw i32 %119, 1
  %121 = icmp sgt i32 %118, %120
  br i1 %121, label %122, label %150

122:                                              ; preds = %117
  %123 = load i32, i32* %6, align 4
  %124 = load i32, i32* %7, align 4
  %125 = sub nsw i32 %124, 1
  %126 = icmp sgt i32 %123, %125
  br i1 %126, label %127, label %138

127:                                              ; preds = %122
  %128 = load i32, i32* %5, align 4
  %129 = sext i32 %128 to i64
  %130 = getelementptr inbounds [100 x [100 x i32]], [100 x [100 x i32]]* %2, i64 0, i64 %129
  %131 = load i32, i32* %6, align 4
  %132 = sext i32 %131 to i64
  %133 = getelementptr inbounds [100 x i32], [100 x i32]* %130, i64 0, i64 %132
  %134 = load i32, i32* %133, align 4
  %135 = call i32 (i8*, ...) @printf(i8* getelementptr inbounds ([4 x i8], [4 x i8]* @.str.2, i64 0, i64 0), i32 %134)
  %136 = load i32, i32* %6, align 4
  %137 = add nsw i32 %136, -1
  store i32 %137, i32* %6, align 4
  br label %149

138:                                              ; preds = %122
  %139 = load i32, i32* %5, align 4
  %140 = sext i32 %139 to i64
  %141 = getelementptr inbounds [100 x [100 x i32]], [100 x [100 x i32]]* %2, i64 0, i64 %140
  %142 = load i32, i32* %6, align 4
  %143 = sext i32 %142 to i64
  %144 = getelementptr inbounds [100 x i32], [100 x i32]* %141, i64 0, i64 %143
  %145 = load i32, i32* %144, align 4
  %146 = call i32 (i8*, ...) @printf(i8* getelementptr inbounds ([4 x i8], [4 x i8]* @.str.2, i64 0, i64 0), i32 %145)
  %147 = load i32, i32* %5, align 4
  %148 = add nsw i32 %147, -1
  store i32 %148, i32* %5, align 4
  br label %149

149:                                              ; preds = %138, %127
  br label %117

150:                                              ; preds = %117
  br label %151

151:                                              ; preds = %150, %104, %97
  br label %49

152:                                              ; preds = %49
  ret i32 0
}

declare dso_local i32 @__isoc99_scanf(i8*, ...) #1

; Function Attrs: nounwind readnone speculatable willreturn
declare double @llvm.floor.f64(double) #2

declare dso_local i32 @printf(i8*, ...) #1


!llvm.module.flags = !{!0}
!llvm.ident = !{!1}

!0 = !{i32 1, !"wchar_size", i32 4}
!1 = !{!"clang version 10.0.0-4ubuntu1 "}
